(dp1
S'kursplan'
p2
(dp3
S'length'
p4
S'integer'
p5
sS'unique'
p6
I00
sS'sortable'
p7
I3
sS'sql'
p8
S'INTEGER REFERENCES kursplan (id) ON DELETE CASCADE'
p9
sS'notnull'
p10
I01
sS'type'
p11
S'reference kursplan'
p12
ssS'id'
p13
(dp14
g4
I512
sg6
I00
sg7
I1
sg8
S'INTEGER PRIMARY KEY AUTOINCREMENT'
p15
sg10
I00
sg11
S'id'
p16
ssS'institution'
p17
(dp18
g4
I512
sg6
I00
sg7
I2
sg8
S'INTEGER REFERENCES institution (id) ON DELETE CASCADE'
p19
sg10
I01
sg11
S'reference institution'
p20
ss.